target datalayout = "e-m:e-p270:32:32-p271:32:32-p272:64:64-i64:64-i128:128-f80:128-n8:16:32:64-S128"
target triple = "x86_64-pc-linux-gnu"

%class.btAlignedObjectArray.8 = type <{ [4 x i8], i32, i32, [4 x i8], ptr, i8, [7 x i8] }>
%class.PHullResult = type { i32, i32, i32, ptr, %class.btAlignedObjectArray.8 }

; Function Attrs: mustprogress uwtable
define linkonce_odr dso_local void @_ZN18btAlignedAllocatorIjLj16EE10deallocateEPj(ptr noundef nonnull align 1 dereferenceable(1) %0, ptr noundef %1) #8 comdat align 2 {
  %3 = alloca ptr, align 8
  %4 = alloca ptr, align 8
  store ptr %0, ptr %3, align 8, !tbaa !179
  store ptr %1, ptr %4, align 8, !tbaa !102
  %5 = load ptr, ptr %4, align 8, !tbaa !102
  call void @_Z21btAlignedFreeInternalPv(ptr noundef %5)
  ret void
}

; Function Attrs: inlinehint mustprogress nounwind uwtable
define linkonce_odr dso_local void @_ZN20btAlignedObjectArrayIjE4initEv(ptr noundef nonnull align 8 dereferenceable(25) %0) #5 comdat align 2 {
  %2 = alloca ptr, align 8
  store ptr %0, ptr %2, align 8, !tbaa !116
  %3 = load ptr, ptr %2, align 8
  %4 = getelementptr inbounds nuw %class.btAlignedObjectArray.8, ptr %3, i32 0, i32 5
  store i8 1, ptr %4, align 8, !tbaa !181
  %5 = getelementptr inbounds nuw %class.btAlignedObjectArray.8, ptr %3, i32 0, i32 4
  store ptr null, ptr %5, align 8, !tbaa !122
  %6 = getelementptr inbounds nuw %class.btAlignedObjectArray.8, ptr %3, i32 0, i32 1
  store i32 0, ptr %6, align 4, !tbaa !126
  %7 = getelementptr inbounds nuw %class.btAlignedObjectArray.8, ptr %3, i32 0, i32 2
  store i32 0, ptr %7, align 8, !tbaa !182
  ret void
}

; Function Attrs: inlinehint mustprogress uwtable
define linkonce_odr dso_local void @_ZN20btAlignedObjectArrayIjE10deallocateEv(ptr noundef nonnull align 8 dereferenceable(25) %0) #6 comdat align 2 {
  %2 = alloca ptr, align 8
  store ptr %0, ptr %2, align 8, !tbaa !116
  %3 = load ptr, ptr %2, align 8
  %4 = getelementptr inbounds nuw %class.btAlignedObjectArray.8, ptr %3, i32 0, i32 4
  %5 = load ptr, ptr %4, align 8, !tbaa !122
  %6 = icmp ne ptr %5, null
  br i1 %6, label %7, label %16

7:                                                ; preds = %1
  %8 = getelementptr inbounds nuw %class.btAlignedObjectArray.8, ptr %3, i32 0, i32 5
  %9 = load i8, ptr %8, align 8, !tbaa !181, !range !148, !noundef !149
  %10 = trunc i8 %9 to i1
  br i1 %10, label %11, label %14

11:                                               ; preds = %7
  %12 = getelementptr inbounds nuw %class.btAlignedObjectArray.8, ptr %3, i32 0, i32 4
  %13 = load ptr, ptr %12, align 8, !tbaa !122
  call void @_ZN18btAlignedAllocatorIjLj16EE10deallocateEPj(ptr noundef nonnull align 1 dereferenceable(1) %3, ptr noundef %13)
  br label %14

14:                                               ; preds = %11, %7
  %15 = getelementptr inbounds nuw %class.btAlignedObjectArray.8, ptr %3, i32 0, i32 4
  store ptr null, ptr %15, align 8, !tbaa !122
  br label %16

16:                                               ; preds = %14, %1
  ret void
}

; Function Attrs: inlinehint mustprogress nounwind uwtable
define linkonce_odr dso_local void @_ZN20btAlignedObjectArrayIjE7destroyEii(ptr noundef nonnull align 8 dereferenceable(25) %0, i32 noundef %1, i32 noundef %2) #5 comdat align 2 {
  %4 = alloca ptr, align 8
  %5 = alloca i32, align 4
  %6 = alloca i32, align 4
  %7 = alloca i32, align 4
  store ptr %0, ptr %4, align 8, !tbaa !116
  store i32 %1, ptr %5, align 4, !tbaa !9
  store i32 %2, ptr %6, align 4, !tbaa !9
  call void @llvm.lifetime.start.p0(i64 4, ptr %7) #14
  %8 = load i32, ptr %5, align 4, !tbaa !9
  store i32 %8, ptr %7, align 4, !tbaa !9
  br label %9

9:                                                ; preds = %14, %3
  %10 = load i32, ptr %7, align 4, !tbaa !9
  %11 = load i32, ptr %6, align 4, !tbaa !9
  %12 = icmp slt i32 %10, %11
  br i1 %12, label %13, label %17

13:                                               ; preds = %9
  br label %14

14:                                               ; preds = %13
  %15 = load i32, ptr %7, align 4, !tbaa !9
  %16 = add nsw i32 %15, 1
  store i32 %16, ptr %7, align 4, !tbaa !9
  br label %9, !llvm.loop !221

17:                                               ; preds = %9
  call void @llvm.lifetime.end.p0(i64 4, ptr %7) #14
  ret void
}

; Function Attrs: inlinehint mustprogress uwtable
define linkonce_odr dso_local void @_ZN20btAlignedObjectArrayIjE5clearEv(ptr noundef nonnull align 8 dereferenceable(25) %0) #6 comdat align 2 {
  %2 = alloca ptr, align 8
  store ptr %0, ptr %2, align 8, !tbaa !116
  %3 = load ptr, ptr %2, align 8
  %4 = call noundef i32 @_ZNK20btAlignedObjectArrayIjE4sizeEv(ptr noundef nonnull align 8 dereferenceable(25) %3)
  call void @_ZN20btAlignedObjectArrayIjE7destroyEii(ptr noundef nonnull align 8 dereferenceable(25) %3, i32 noundef 0, i32 noundef %4)
  call void @_ZN20btAlignedObjectArrayIjE10deallocateEv(ptr noundef nonnull align 8 dereferenceable(25) %3)
  call void @_ZN20btAlignedObjectArrayIjE4initEv(ptr noundef nonnull align 8 dereferenceable(25) %3)
  ret void
}

; Function Attrs: inlinehint mustprogress nounwind uwtable
define linkonce_odr dso_local noundef i32 @_ZNK20btAlignedObjectArrayIjE4sizeEv(ptr noundef nonnull align 8 dereferenceable(25) %0) #5 comdat align 2 {
  %2 = alloca ptr, align 8
  store ptr %0, ptr %2, align 8, !tbaa !116
  %3 = load ptr, ptr %2, align 8
  %4 = getelementptr inbounds nuw %class.btAlignedObjectArray.8, ptr %3, i32 0, i32 1
  %5 = load i32, ptr %4, align 4, !tbaa !126
  ret i32 %5
}

; Function Attrs: mustprogress uwtable
define dso_local void @_Z11ReleaseHullR11PHullResult(ptr noundef nonnull align 8 dereferenceable(56) %0) #8 {
  %2 = alloca ptr, align 8
  store ptr %0, ptr %2, align 8, !tbaa !129
  %3 = load ptr, ptr %2, align 8, !tbaa !129
  %4 = getelementptr inbounds nuw %class.PHullResult, ptr %3, i32 0, i32 4
  %5 = call noundef i32 @_ZNK20btAlignedObjectArrayIjE4sizeEv(ptr noundef nonnull align 8 dereferenceable(25) %4)
  %6 = icmp ne i32 %5, 0
  br i1 %6, label %7, label %10

7:                                                ; preds = %1
  %8 = load ptr, ptr %2, align 8, !tbaa !129
  %9 = getelementptr inbounds nuw %class.PHullResult, ptr %8, i32 0, i32 4
  call void @_ZN20btAlignedObjectArrayIjE5clearEv(ptr noundef nonnull align 8 dereferenceable(25) %9)
  br label %10

10:                                               ; preds = %7, %1
  %11 = load ptr, ptr %2, align 8, !tbaa !129
  %12 = getelementptr inbounds nuw %class.PHullResult, ptr %11, i32 0, i32 0
  store i32 0, ptr %12, align 8, !tbaa !135
  %13 = load ptr, ptr %2, align 8, !tbaa !129
  %14 = getelementptr inbounds nuw %class.PHullResult, ptr %13, i32 0, i32 1
  store i32 0, ptr %14, align 4, !tbaa !131
  %15 = load ptr, ptr %2, align 8, !tbaa !129
  %16 = getelementptr inbounds nuw %class.PHullResult, ptr %15, i32 0, i32 3
  store ptr null, ptr %16, align 8, !tbaa !134
  ret void
}