; Function Attrs: mustprogress uwtable
define dso_local void @_Z11ReleaseHullR11PHullResult(ptr noundef nonnull align 8 captures(none) dereferenceable(56) initializes((0, 8), (16, 24)) %0) local_unnamed_addr #4 {
  %2 = getelementptr inbounds nuw i8, ptr %0, i64 28
  %3 = load i32, ptr %2, align 4, !tbaa !90
  %.not = icmp eq i32 %3, 0
  br i1 %.not, label %14, label %4

4:                                                ; preds = %1
  %5 = getelementptr inbounds nuw i8, ptr %0, i64 40
  %6 = load ptr, ptr %5, align 8, !tbaa !94
  %.not.i.i = icmp eq ptr %6, null
  br i1 %.not.i.i, label %_ZN20btAlignedObjectArrayIjE5clearEv.exit, label %7

7:                                                ; preds = %4
  %8 = getelementptr inbounds nuw i8, ptr %0, i64 48
  %9 = load i8, ptr %8, align 8, !tbaa !96, !range !39, !noundef !40
  %10 = trunc nuw i8 %9 to i1
  br i1 %10, label %11, label %_ZN20btAlignedObjectArrayIjE5clearEv.exit

11:                                               ; preds = %7
  tail call void @_Z21btAlignedFreeInternalPv(ptr noundef nonnull %6)
  br label %_ZN20btAlignedObjectArrayIjE5clearEv.exit

_ZN20btAlignedObjectArrayIjE5clearEv.exit:        ; preds = %4, %7, %11
  %12 = getelementptr inbounds nuw i8, ptr %0, i64 48
  store i8 1, ptr %12, align 8, !tbaa !96
  store ptr null, ptr %5, align 8, !tbaa !94
  store i32 0, ptr %2, align 4, !tbaa !90
  %13 = getelementptr inbounds nuw i8, ptr %0, i64 32
  store i32 0, ptr %13, align 8, !tbaa !93
  br label %14

14:                                               ; preds = %_ZN20btAlignedObjectArrayIjE5clearEv.exit, %1
  store i32 0, ptr %0, align 8, !tbaa !102
  %15 = getelementptr inbounds nuw i8, ptr %0, i64 4
  store i32 0, ptr %15, align 4, !tbaa !98
  %16 = getelementptr inbounds nuw i8, ptr %0, i64 16
  store ptr null, ptr %16, align 8, !tbaa !101
  ret void
}